; Function Attrs: nounwind uwtable
define ptr @l_Lean_Elab_Term_elabLeadingParserMacro___lambda__2___boxed(ptr noundef %0, ptr noundef %1, ptr noundef %2, ptr noundef %3, ptr noundef %4, ptr noundef %5, ptr noundef %6, ptr noundef %7, ptr noundef %8, ptr noundef %9) local_unnamed_addr #0 {
  %11 = tail call ptr @l_Lean_Elab_Term_elabLeadingParserMacro___lambda__2(ptr noundef %0, ptr poison, ptr noundef %2, ptr noundef %3, ptr noundef %4, ptr noundef %5, ptr noundef %6, ptr noundef %7, ptr noundef %8, ptr noundef %9)
  %12 = ptrtoint ptr %8 to i64
  %13 = and i64 %12, 1
  %.not = icmp eq i64 %13, 0
  br i1 %.not, label %14, label %lean_dec.exit21

14:                                               ; preds = %10
  %15 = load i32, ptr %8, align 4, !tbaa !4
  %16 = icmp sgt i32 %15, 1
  br i1 %16, label %17, label %19, !prof !9

17:                                               ; preds = %14
  %18 = add nsw i32 %15, -1
  store i32 %18, ptr %8, align 4, !tbaa !4
  br label %lean_dec.exit21

19:                                               ; preds = %14
  %.not.i = icmp eq i32 %15, 0
  br i1 %.not.i, label %lean_dec.exit21, label %20

20:                                               ; preds = %19
  tail call void @lean_dec_ref_cold(ptr noundef nonnull %8) #6
  br label %lean_dec.exit21

lean_dec.exit21:                                  ; preds = %20, %19, %17, %10
  %21 = ptrtoint ptr %6 to i64
  %22 = and i64 %21, 1
  %.not32 = icmp eq i64 %22, 0
  br i1 %.not32, label %23, label %lean_dec.exit20

23:                                               ; preds = %lean_dec.exit21
  %24 = load i32, ptr %6, align 4, !tbaa !4
  %25 = icmp sgt i32 %24, 1
  br i1 %25, label %26, label %28, !prof !9

26:                                               ; preds = %23
  %27 = add nsw i32 %24, -1
  store i32 %27, ptr %6, align 4, !tbaa !4
  br label %lean_dec.exit20

28:                                               ; preds = %23
  %.not.i22 = icmp eq i32 %24, 0
  br i1 %.not.i22, label %lean_dec.exit20, label %29

29:                                               ; preds = %28
  tail call void @lean_dec_ref_cold(ptr noundef nonnull %6) #6
  br label %lean_dec.exit20

lean_dec.exit20:                                  ; preds = %29, %28, %26, %lean_dec.exit21
  %30 = ptrtoint ptr %5 to i64
  %31 = and i64 %30, 1
  %.not33 = icmp eq i64 %31, 0
  br i1 %.not33, label %32, label %lean_dec.exit19

32:                                               ; preds = %lean_dec.exit20
  %33 = load i32, ptr %5, align 4, !tbaa !4
  %34 = icmp sgt i32 %33, 1
  br i1 %34, label %35, label %37, !prof !9

35:                                               ; preds = %32
  %36 = add nsw i32 %33, -1
  store i32 %36, ptr %5, align 4, !tbaa !4
  br label %lean_dec.exit19

37:                                               ; preds = %32
  %.not.i24 = icmp eq i32 %33, 0
  br i1 %.not.i24, label %lean_dec.exit19, label %38

38:                                               ; preds = %37
  tail call void @lean_dec_ref_cold(ptr noundef nonnull %5) #6
  br label %lean_dec.exit19

lean_dec.exit19:                                  ; preds = %38, %37, %35, %lean_dec.exit20
  %39 = ptrtoint ptr %4 to i64
  %40 = and i64 %39, 1
  %.not34 = icmp eq i64 %40, 0
  br i1 %.not34, label %41, label %lean_dec.exit18

41:                                               ; preds = %lean_dec.exit19
  %42 = load i32, ptr %4, align 4, !tbaa !4
  %43 = icmp sgt i32 %42, 1
  br i1 %43, label %44, label %46, !prof !9

44:                                               ; preds = %41
  %45 = add nsw i32 %42, -1
  store i32 %45, ptr %4, align 4, !tbaa !4
  br label %lean_dec.exit18

46:                                               ; preds = %41
  %.not.i26 = icmp eq i32 %42, 0
  br i1 %.not.i26, label %lean_dec.exit18, label %47

47:                                               ; preds = %46
  tail call void @lean_dec_ref_cold(ptr noundef nonnull %4) #6
  br label %lean_dec.exit18

lean_dec.exit18:                                  ; preds = %47, %46, %44, %lean_dec.exit19
  %48 = ptrtoint ptr %1 to i64
  %49 = and i64 %48, 1
  %.not35 = icmp eq i64 %49, 0
  br i1 %.not35, label %50, label %lean_dec.exit17

50:                                               ; preds = %lean_dec.exit18
  %51 = load i32, ptr %1, align 4, !tbaa !4
  %52 = icmp sgt i32 %51, 1
  br i1 %52, label %53, label %55, !prof !9

53:                                               ; preds = %50
  %54 = add nsw i32 %51, -1
  store i32 %54, ptr %1, align 4, !tbaa !4
  br label %lean_dec.exit17

55:                                               ; preds = %50
  %.not.i28 = icmp eq i32 %51, 0
  br i1 %.not.i28, label %lean_dec.exit17, label %56

56:                                               ; preds = %55
  tail call void @lean_dec_ref_cold(ptr noundef nonnull %1) #6
  br label %lean_dec.exit17

lean_dec.exit17:                                  ; preds = %56, %55, %53, %lean_dec.exit18
  %57 = ptrtoint ptr %0 to i64
  %58 = and i64 %57, 1
  %.not36 = icmp eq i64 %58, 0
  br i1 %.not36, label %59, label %lean_dec.exit

59:                                               ; preds = %lean_dec.exit17
  %60 = load i32, ptr %0, align 4, !tbaa !4
  %61 = icmp sgt i32 %60, 1
  br i1 %61, label %62, label %64, !prof !9

62:                                               ; preds = %59
  %63 = add nsw i32 %60, -1
  store i32 %63, ptr %0, align 4, !tbaa !4
  br label %lean_dec.exit

64:                                               ; preds = %59
  %.not.i30 = icmp eq i32 %60, 0
  br i1 %.not.i30, label %lean_dec.exit, label %65

65:                                               ; preds = %64
  tail call void @lean_dec_ref_cold(ptr noundef nonnull %0) #6
  br label %lean_dec.exit

lean_dec.exit:                                    ; preds = %65, %64, %62, %lean_dec.exit17
  ret ptr %11
}